target datalayout = "e-m:e-p270:32:32-p271:32:32-p272:64:64-i64:64-i128:128-f80:128-n8:16:32:64-S128"
target triple = "x86_64-pc-linux-gnu"

; Function Attrs: nounwind uwtable
define internal float @ssim_end1(i32 noundef %0, i32 noundef %1, i32 noundef %2, i32 noundef %3) #0 {
  %5 = alloca i32, align 4
  %6 = alloca i32, align 4
  %7 = alloca i32, align 4
  %8 = alloca i32, align 4
  %9 = alloca i32, align 4
  %10 = alloca i32, align 4
  %11 = alloca i32, align 4
  %12 = alloca i32, align 4
  %13 = alloca i32, align 4
  %14 = alloca i32, align 4
  store i32 %0, ptr %5, align 4, !tbaa !37
  store i32 %1, ptr %6, align 4, !tbaa !37
  store i32 %2, ptr %7, align 4, !tbaa !37
  store i32 %3, ptr %8, align 4, !tbaa !37
  call void @llvm.lifetime.start.p0(i64 4, ptr %9) #12
  %15 = load i32, ptr %5, align 4, !tbaa !37
  store i32 %15, ptr %9, align 4, !tbaa !37
  call void @llvm.lifetime.start.p0(i64 4, ptr %10) #12
  %16 = load i32, ptr %6, align 4, !tbaa !37
  store i32 %16, ptr %10, align 4, !tbaa !37
  call void @llvm.lifetime.start.p0(i64 4, ptr %11) #12
  %17 = load i32, ptr %7, align 4, !tbaa !37
  store i32 %17, ptr %11, align 4, !tbaa !37
  call void @llvm.lifetime.start.p0(i64 4, ptr %12) #12
  %18 = load i32, ptr %8, align 4, !tbaa !37
  store i32 %18, ptr %12, align 4, !tbaa !37
  call void @llvm.lifetime.start.p0(i64 4, ptr %13) #12
  %19 = load i32, ptr %11, align 4, !tbaa !37
  %20 = mul nsw i32 %19, 64
  %21 = load i32, ptr %9, align 4, !tbaa !37
  %22 = load i32, ptr %9, align 4, !tbaa !37
  %23 = mul nsw i32 %21, %22
  %24 = sub nsw i32 %20, %23
  %25 = load i32, ptr %10, align 4, !tbaa !37
  %26 = load i32, ptr %10, align 4, !tbaa !37
  %27 = mul nsw i32 %25, %26
  %28 = sub nsw i32 %24, %27
  store i32 %28, ptr %13, align 4, !tbaa !37
  call void @llvm.lifetime.start.p0(i64 4, ptr %14) #12
  %29 = load i32, ptr %12, align 4, !tbaa !37
  %30 = mul nsw i32 %29, 64
  %31 = load i32, ptr %9, align 4, !tbaa !37
  %32 = load i32, ptr %10, align 4, !tbaa !37
  %33 = mul nsw i32 %31, %32
  %34 = sub nsw i32 %30, %33
  store i32 %34, ptr %14, align 4, !tbaa !37
  %35 = load i32, ptr %9, align 4, !tbaa !37
  %36 = mul nsw i32 2, %35
  %37 = load i32, ptr %10, align 4, !tbaa !37
  %38 = mul nsw i32 %36, %37
  %39 = add nsw i32 %38, 416
  %40 = sitofp i32 %39 to float
  %41 = load i32, ptr %14, align 4, !tbaa !37
  %42 = mul nsw i32 2, %41
  %43 = add nsw i32 %42, 235963
  %44 = sitofp i32 %43 to float
  %45 = fmul nsz float %40, %44
  %46 = load i32, ptr %9, align 4, !tbaa !37
  %47 = load i32, ptr %9, align 4, !tbaa !37
  %48 = mul nsw i32 %46, %47
  %49 = load i32, ptr %10, align 4, !tbaa !37
  %50 = load i32, ptr %10, align 4, !tbaa !37
  %51 = mul nsw i32 %49, %50
  %52 = add nsw i32 %48, %51
  %53 = add nsw i32 %52, 416
  %54 = sitofp i32 %53 to float
  %55 = load i32, ptr %13, align 4, !tbaa !37
  %56 = add nsw i32 %55, 235963
  %57 = sitofp i32 %56 to float
  %58 = fmul nsz float %54, %57
  %59 = fdiv nsz float %45, %58
  call void @llvm.lifetime.end.p0(i64 4, ptr %14) #12
  call void @llvm.lifetime.end.p0(i64 4, ptr %13) #12
  call void @llvm.lifetime.end.p0(i64 4, ptr %12) #12
  call void @llvm.lifetime.end.p0(i64 4, ptr %11) #12
  call void @llvm.lifetime.end.p0(i64 4, ptr %10) #12
  call void @llvm.lifetime.end.p0(i64 4, ptr %9) #12
  ret float %59
}

; Function Attrs: nounwind uwtable
define internal double @ssim_endn_8bit(ptr noundef %0, ptr noundef %1, i32 noundef %2) #0 {
  %4 = alloca ptr, align 8
  %5 = alloca ptr, align 8
  %6 = alloca i32, align 4
  %7 = alloca double, align 8
  %8 = alloca i32, align 4
  store ptr %0, ptr %4, align 8, !tbaa !75
  store ptr %1, ptr %5, align 8, !tbaa !75
  store i32 %2, ptr %6, align 4, !tbaa !37
  call void @llvm.lifetime.start.p0(i64 8, ptr %7) #12
  store double 0.000000e+00, ptr %7, align 8, !tbaa !43
  call void @llvm.lifetime.start.p0(i64 4, ptr %8) #12
  store i32 0, ptr %8, align 4, !tbaa !37
  br label %9

9:                                                ; preds = %135, %3
  %10 = load i32, ptr %8, align 4, !tbaa !37
  %11 = load i32, ptr %6, align 4, !tbaa !37
  %12 = icmp slt i32 %10, %11
  br i1 %12, label %14, label %13

13:                                               ; preds = %9
  call void @llvm.lifetime.end.p0(i64 4, ptr %8) #12
  br label %138

14:                                               ; preds = %9
  %15 = load ptr, ptr %4, align 8, !tbaa !75
  %16 = load i32, ptr %8, align 4, !tbaa !37
  %17 = sext i32 %16 to i64
  %18 = getelementptr inbounds [4 x i32], ptr %15, i64 %17
  %19 = getelementptr inbounds [4 x i32], ptr %18, i64 0, i64 0
  %20 = load i32, ptr %19, align 4, !tbaa !37
  %21 = load ptr, ptr %4, align 8, !tbaa !75
  %22 = load i32, ptr %8, align 4, !tbaa !37
  %23 = add nsw i32 %22, 1
  %24 = sext i32 %23 to i64
  %25 = getelementptr inbounds [4 x i32], ptr %21, i64 %24
  %26 = getelementptr inbounds [4 x i32], ptr %25, i64 0, i64 0
  %27 = load i32, ptr %26, align 4, !tbaa !37
  %28 = add nsw i32 %20, %27
  %29 = load ptr, ptr %5, align 8, !tbaa !75
  %30 = load i32, ptr %8, align 4, !tbaa !37
  %31 = sext i32 %30 to i64
  %32 = getelementptr inbounds [4 x i32], ptr %29, i64 %31
  %33 = getelementptr inbounds [4 x i32], ptr %32, i64 0, i64 0
  %34 = load i32, ptr %33, align 4, !tbaa !37
  %35 = add nsw i32 %28, %34
  %36 = load ptr, ptr %5, align 8, !tbaa !75
  %37 = load i32, ptr %8, align 4, !tbaa !37
  %38 = add nsw i32 %37, 1
  %39 = sext i32 %38 to i64
  %40 = getelementptr inbounds [4 x i32], ptr %36, i64 %39
  %41 = getelementptr inbounds [4 x i32], ptr %40, i64 0, i64 0
  %42 = load i32, ptr %41, align 4, !tbaa !37
  %43 = add nsw i32 %35, %42
  %44 = load ptr, ptr %4, align 8, !tbaa !75
  %45 = load i32, ptr %8, align 4, !tbaa !37
  %46 = sext i32 %45 to i64
  %47 = getelementptr inbounds [4 x i32], ptr %44, i64 %46
  %48 = getelementptr inbounds [4 x i32], ptr %47, i64 0, i64 1
  %49 = load i32, ptr %48, align 4, !tbaa !37
  %50 = load ptr, ptr %4, align 8, !tbaa !75
  %51 = load i32, ptr %8, align 4, !tbaa !37
  %52 = add nsw i32 %51, 1
  %53 = sext i32 %52 to i64
  %54 = getelementptr inbounds [4 x i32], ptr %50, i64 %53
  %55 = getelementptr inbounds [4 x i32], ptr %54, i64 0, i64 1
  %56 = load i32, ptr %55, align 4, !tbaa !37
  %57 = add nsw i32 %49, %56
  %58 = load ptr, ptr %5, align 8, !tbaa !75
  %59 = load i32, ptr %8, align 4, !tbaa !37
  %60 = sext i32 %59 to i64
  %61 = getelementptr inbounds [4 x i32], ptr %58, i64 %60
  %62 = getelementptr inbounds [4 x i32], ptr %61, i64 0, i64 1
  %63 = load i32, ptr %62, align 4, !tbaa !37
  %64 = add nsw i32 %57, %63
  %65 = load ptr, ptr %5, align 8, !tbaa !75
  %66 = load i32, ptr %8, align 4, !tbaa !37
  %67 = add nsw i32 %66, 1
  %68 = sext i32 %67 to i64
  %69 = getelementptr inbounds [4 x i32], ptr %65, i64 %68
  %70 = getelementptr inbounds [4 x i32], ptr %69, i64 0, i64 1
  %71 = load i32, ptr %70, align 4, !tbaa !37
  %72 = add nsw i32 %64, %71
  %73 = load ptr, ptr %4, align 8, !tbaa !75
  %74 = load i32, ptr %8, align 4, !tbaa !37
  %75 = sext i32 %74 to i64
  %76 = getelementptr inbounds [4 x i32], ptr %73, i64 %75
  %77 = getelementptr inbounds [4 x i32], ptr %76, i64 0, i64 2
  %78 = load i32, ptr %77, align 4, !tbaa !37
  %79 = load ptr, ptr %4, align 8, !tbaa !75
  %80 = load i32, ptr %8, align 4, !tbaa !37
  %81 = add nsw i32 %80, 1
  %82 = sext i32 %81 to i64
  %83 = getelementptr inbounds [4 x i32], ptr %79, i64 %82
  %84 = getelementptr inbounds [4 x i32], ptr %83, i64 0, i64 2
  %85 = load i32, ptr %84, align 4, !tbaa !37
  %86 = add nsw i32 %78, %85
  %87 = load ptr, ptr %5, align 8, !tbaa !75
  %88 = load i32, ptr %8, align 4, !tbaa !37
  %89 = sext i32 %88 to i64
  %90 = getelementptr inbounds [4 x i32], ptr %87, i64 %89
  %91 = getelementptr inbounds [4 x i32], ptr %90, i64 0, i64 2
  %92 = load i32, ptr %91, align 4, !tbaa !37
  %93 = add nsw i32 %86, %92
  %94 = load ptr, ptr %5, align 8, !tbaa !75
  %95 = load i32, ptr %8, align 4, !tbaa !37
  %96 = add nsw i32 %95, 1
  %97 = sext i32 %96 to i64
  %98 = getelementptr inbounds [4 x i32], ptr %94, i64 %97
  %99 = getelementptr inbounds [4 x i32], ptr %98, i64 0, i64 2
  %100 = load i32, ptr %99, align 4, !tbaa !37
  %101 = add nsw i32 %93, %100
  %102 = load ptr, ptr %4, align 8, !tbaa !75
  %103 = load i32, ptr %8, align 4, !tbaa !37
  %104 = sext i32 %103 to i64
  %105 = getelementptr inbounds [4 x i32], ptr %102, i64 %104
  %106 = getelementptr inbounds [4 x i32], ptr %105, i64 0, i64 3
  %107 = load i32, ptr %106, align 4, !tbaa !37
  %108 = load ptr, ptr %4, align 8, !tbaa !75
  %109 = load i32, ptr %8, align 4, !tbaa !37
  %110 = add nsw i32 %109, 1
  %111 = sext i32 %110 to i64
  %112 = getelementptr inbounds [4 x i32], ptr %108, i64 %111
  %113 = getelementptr inbounds [4 x i32], ptr %112, i64 0, i64 3
  %114 = load i32, ptr %113, align 4, !tbaa !37
  %115 = add nsw i32 %107, %114
  %116 = load ptr, ptr %5, align 8, !tbaa !75
  %117 = load i32, ptr %8, align 4, !tbaa !37
  %118 = sext i32 %117 to i64
  %119 = getelementptr inbounds [4 x i32], ptr %116, i64 %118
  %120 = getelementptr inbounds [4 x i32], ptr %119, i64 0, i64 3
  %121 = load i32, ptr %120, align 4, !tbaa !37
  %122 = add nsw i32 %115, %121
  %123 = load ptr, ptr %5, align 8, !tbaa !75
  %124 = load i32, ptr %8, align 4, !tbaa !37
  %125 = add nsw i32 %124, 1
  %126 = sext i32 %125 to i64
  %127 = getelementptr inbounds [4 x i32], ptr %123, i64 %126
  %128 = getelementptr inbounds [4 x i32], ptr %127, i64 0, i64 3
  %129 = load i32, ptr %128, align 4, !tbaa !37
  %130 = add nsw i32 %122, %129
  %131 = call nsz float @ssim_end1(i32 noundef %43, i32 noundef %72, i32 noundef %101, i32 noundef %130)
  %132 = fpext nsz float %131 to double
  %133 = load double, ptr %7, align 8, !tbaa !43
  %134 = fadd nsz double %133, %132
  store double %134, ptr %7, align 8, !tbaa !43
  br label %135

135:                                              ; preds = %14
  %136 = load i32, ptr %8, align 4, !tbaa !37
  %137 = add nsw i32 %136, 1
  store i32 %137, ptr %8, align 4, !tbaa !37
  br label %9, !llvm.loop !110

138:                                              ; preds = %13
  %139 = load double, ptr %7, align 8, !tbaa !43
  call void @llvm.lifetime.end.p0(i64 8, ptr %7) #12
  ret double %139
}