; Function Attrs: nofree norecurse nosync nounwind memory(argmem: read) uwtable
define internal double @ssim_endn_8bit(ptr noundef readonly captures(none) %0, ptr noundef readonly captures(none) %1, i32 noundef %2) #7 {
  %4 = icmp sgt i32 %2, 0
  br i1 %4, label %.lr.ph.preheader, label %._crit_edge

.lr.ph.preheader:                                 ; preds = %3
  %wide.trip.count = zext nneg i32 %2 to i64
  %.pre = load i32, ptr %0, align 4, !tbaa !34
  %.pre40 = load i32, ptr %1, align 4, !tbaa !34
  %.phi.trans.insert = getelementptr inbounds nuw i8, ptr %0, i64 4
  %.pre41 = load i32, ptr %.phi.trans.insert, align 4, !tbaa !34
  %.phi.trans.insert42 = getelementptr inbounds nuw i8, ptr %1, i64 4
  %.pre43 = load i32, ptr %.phi.trans.insert42, align 4, !tbaa !34
  %.phi.trans.insert44 = getelementptr inbounds nuw i8, ptr %0, i64 8
  %.pre45 = load i32, ptr %.phi.trans.insert44, align 4, !tbaa !34
  %.phi.trans.insert46 = getelementptr inbounds nuw i8, ptr %1, i64 8
  %.pre47 = load i32, ptr %.phi.trans.insert46, align 4, !tbaa !34
  %.phi.trans.insert48 = getelementptr inbounds nuw i8, ptr %0, i64 12
  %.pre49 = load i32, ptr %.phi.trans.insert48, align 4, !tbaa !34
  %.phi.trans.insert50 = getelementptr inbounds nuw i8, ptr %1, i64 12
  %.pre51 = load i32, ptr %.phi.trans.insert50, align 4, !tbaa !34
  br label %.lr.ph

._crit_edge:                                      ; preds = %.lr.ph, %3
  %.036.lcssa = phi double [ 0.000000e+00, %3 ], [ %62, %.lr.ph ]
  ret double %.036.lcssa

.lr.ph:                                           ; preds = %.lr.ph.preheader, %.lr.ph
  %5 = phi i32 [ %.pre51, %.lr.ph.preheader ], [ %39, %.lr.ph ]
  %6 = phi i32 [ %.pre49, %.lr.ph.preheader ], [ %35, %.lr.ph ]
  %7 = phi i32 [ %.pre47, %.lr.ph.preheader ], [ %32, %.lr.ph ]
  %8 = phi i32 [ %.pre45, %.lr.ph.preheader ], [ %28, %.lr.ph ]
  %9 = phi i32 [ %.pre43, %.lr.ph.preheader ], [ %25, %.lr.ph ]
  %10 = phi i32 [ %.pre41, %.lr.ph.preheader ], [ %21, %.lr.ph ]
  %11 = phi i32 [ %.pre40, %.lr.ph.preheader ], [ %18, %.lr.ph ]
  %12 = phi i32 [ %.pre, %.lr.ph.preheader ], [ %14, %.lr.ph ]
  %indvars.iv = phi i64 [ 0, %.lr.ph.preheader ], [ %indvars.iv.next, %.lr.ph ]
  %.03637 = phi double [ 0.000000e+00, %.lr.ph.preheader ], [ %62, %.lr.ph ]
  %indvars.iv.next = add nuw nsw i64 %indvars.iv, 1
  %13 = getelementptr inbounds nuw [4 x i32], ptr %0, i64 %indvars.iv.next
  %14 = load i32, ptr %13, align 4, !tbaa !34
  %15 = add nsw i32 %14, %12
  %16 = add nsw i32 %15, %11
  %17 = getelementptr inbounds nuw [4 x i32], ptr %1, i64 %indvars.iv.next
  %18 = load i32, ptr %17, align 4, !tbaa !34
  %19 = add nsw i32 %16, %18
  %20 = getelementptr inbounds nuw i8, ptr %13, i64 4
  %21 = load i32, ptr %20, align 4, !tbaa !34
  %22 = add nsw i32 %21, %10
  %23 = add nsw i32 %22, %9
  %24 = getelementptr inbounds nuw i8, ptr %17, i64 4
  %25 = load i32, ptr %24, align 4, !tbaa !34
  %26 = add nsw i32 %23, %25
  %27 = getelementptr inbounds nuw i8, ptr %13, i64 8
  %28 = load i32, ptr %27, align 4, !tbaa !34
  %29 = add nsw i32 %28, %8
  %30 = add nsw i32 %29, %7
  %31 = getelementptr inbounds nuw i8, ptr %17, i64 8
  %32 = load i32, ptr %31, align 4, !tbaa !34
  %33 = add nsw i32 %30, %32
  %34 = getelementptr inbounds nuw i8, ptr %13, i64 12
  %35 = load i32, ptr %34, align 4, !tbaa !34
  %36 = add nsw i32 %35, %6
  %37 = add nsw i32 %36, %5
  %38 = getelementptr inbounds nuw i8, ptr %17, i64 12
  %39 = load i32, ptr %38, align 4, !tbaa !34
  %40 = add nsw i32 %37, %39
  %41 = shl nsw i32 %33, 6
  %42 = mul nsw i32 %19, %19
  %43 = mul nsw i32 %26, %26
  %44 = add nuw i32 %43, %42
  %45 = shl nsw i32 %19, 1
  %46 = mul nsw i32 %45, %26
  %47 = add nsw i32 %46, 416
  %48 = sitofp i32 %47 to float
  %49 = shl i32 %40, 7
  %50 = mul i32 %19, -2
  %.neg20.i = mul i32 %50, %26
  %51 = add i32 %.neg20.i, 235963
  %52 = add i32 %51, %49
  %53 = sitofp i32 %52 to float
  %54 = fmul nsz float %48, %53
  %55 = add nuw nsw i32 %44, 416
  %56 = uitofp nneg i32 %55 to float
  %reass.sub = sub i32 %41, %44
  %57 = add i32 %reass.sub, 235963
  %58 = sitofp i32 %57 to float
  %59 = fmul nsz float %56, %58
  %60 = fdiv nsz float %54, %59
  %61 = fpext nsz float %60 to double
  %62 = fadd nsz double %.03637, %61
  %exitcond.not = icmp eq i64 %indvars.iv.next, %wide.trip.count
  br i1 %exitcond.not, label %._crit_edge, label %.lr.ph, !llvm.loop !105
}